; Function Attrs: mustprogress nounwind uwtable
define dso_local void @_ZN12ScopedMetricC2EP6Metric(ptr noundef nonnull writeonly align 8 captures(none) dereferenceable(16) initializes((0, 8)) %0, ptr noundef %1) unnamed_addr #0 align 2 {
  store ptr %1, ptr %0, align 8, !tbaa !4
  %.not = icmp eq ptr %1, null
  br i1 %.not, label %6, label %3

3:                                                ; preds = %2
  %4 = tail call noundef i64 @_ZNSt6chrono3_V212steady_clock3nowEv() #12
  %5 = getelementptr inbounds nuw i8, ptr %0, i64 8
  store i64 %4, ptr %5, align 8, !tbaa !11
  br label %6

6:                                                ; preds = %2, %3
  ret void
}